target datalayout = "e-m:e-p270:32:32-p271:32:32-p272:64:64-i64:64-i128:128-f80:128-n8:16:32:64-S128"
target triple = "x86_64-unknown-linux-gnu"

%"class.std::__cxx11::basic_string" = type { %"struct.std::__cxx11::basic_string<char>::_Alloc_hider", i64, %union.anon }
%"struct.std::__cxx11::basic_string<char>::_Alloc_hider" = type { ptr }
%union.anon = type { i64, [8 x i8] }
%"class.rocksdb::Slice" = type { ptr, i64 }
%"class.__gnu_cxx::__normal_iterator.490" = type { ptr }
%class.anon = type { ptr }
%"struct.rocksdb::TableReader::Anchor" = type { %"class.std::__cxx11::basic_string", i64 }
%"struct.__gnu_cxx::__ops::_Val_comp_iter" = type { %class.anon }

; Function Attrs: mustprogress uwtable
define linkonce_odr noundef i32 @_ZNK7rocksdb10Comparator23CompareWithoutTimestampERKNS_5SliceES3_(ptr noundef nonnull align 8 dereferenceable(48) %this, ptr noundef nonnull align 8 dereferenceable(16) %a, ptr noundef nonnull align 8 dereferenceable(16) %b) #0 comdat align 2 {
entry:
  %this.addr = alloca ptr, align 8
  %a.addr = alloca ptr, align 8
  %b.addr = alloca ptr, align 8
  store ptr %this, ptr %this.addr, align 8
  store ptr %a, ptr %a.addr, align 8
  store ptr %b, ptr %b.addr, align 8
  %this1 = load ptr, ptr %this.addr, align 8
  %0 = load ptr, ptr %a.addr, align 8
  %1 = load ptr, ptr %b.addr, align 8
  %vtable = load ptr, ptr %this1, align 8
  %vfn = getelementptr inbounds ptr, ptr %vtable, i64 26
  %2 = load ptr, ptr %vfn, align 8
  %call = call noundef i32 %2(ptr noundef nonnull align 8 dereferenceable(48) %this1, ptr noundef nonnull align 8 dereferenceable(16) %0, i1 noundef zeroext true, ptr noundef nonnull align 8 dereferenceable(16) %1, i1 noundef zeroext true)
  ret i32 %call
}

; Function Attrs: mustprogress nounwind uwtable
define linkonce_odr void @_ZN7rocksdb5SliceC2ERKNSt7__cxx1112basic_stringIcSt11char_traitsIcESaIcEEE(ptr noundef nonnull align 8 dereferenceable(16) %this, ptr noundef nonnull align 8 dereferenceable(32) %s) unnamed_addr #1 comdat align 2 {
entry:
  %this.addr = alloca ptr, align 8
  %s.addr = alloca ptr, align 8
  store ptr %this, ptr %this.addr, align 8
  store ptr %s, ptr %s.addr, align 8
  %this1 = load ptr, ptr %this.addr, align 8
  %data_ = getelementptr inbounds %"class.rocksdb::Slice", ptr %this1, i32 0, i32 0
  %0 = load ptr, ptr %s.addr, align 8
  %call = call noundef ptr @_ZNKSt7__cxx1112basic_stringIcSt11char_traitsIcESaIcEE4dataEv(ptr noundef nonnull align 8 dereferenceable(32) %0) #3
  store ptr %call, ptr %data_, align 8
  %size_ = getelementptr inbounds %"class.rocksdb::Slice", ptr %this1, i32 0, i32 1
  %1 = load ptr, ptr %s.addr, align 8
  %call2 = call noundef i64 @_ZNKSt7__cxx1112basic_stringIcSt11char_traitsIcESaIcEE4sizeEv(ptr noundef nonnull align 8 dereferenceable(32) %1) #3
  store i64 %call2, ptr %size_, align 8
  ret void
}

; Function Attrs: mustprogress uwtable
define internal noundef zeroext i1 @"_ZZN7rocksdb13CompactionJob26GenSubcompactionBoundariesEvENK3$_0clERNS_11TableReader6AnchorES4_"(ptr noundef nonnull align 8 dereferenceable(8) %this, ptr noundef nonnull align 8 dereferenceable(40) %a, ptr noundef nonnull align 8 dereferenceable(40) %b) #0 align 2 {
entry:
  %this.addr = alloca ptr, align 8
  %a.addr = alloca ptr, align 8
  %b.addr = alloca ptr, align 8
  %ref.tmp = alloca %"class.rocksdb::Slice", align 8
  %ref.tmp2 = alloca %"class.rocksdb::Slice", align 8
  store ptr %this, ptr %this.addr, align 8
  store ptr %a, ptr %a.addr, align 8
  store ptr %b, ptr %b.addr, align 8
  %this1 = load ptr, ptr %this.addr, align 8
  %0 = getelementptr inbounds %class.anon, ptr %this1, i32 0, i32 0
  %1 = load ptr, ptr %0, align 8
  %2 = load ptr, ptr %a.addr, align 8
  %user_key = getelementptr inbounds %"struct.rocksdb::TableReader::Anchor", ptr %2, i32 0, i32 0
  call void @_ZN7rocksdb5SliceC2ERKNSt7__cxx1112basic_stringIcSt11char_traitsIcESaIcEEE(ptr noundef nonnull align 8 dereferenceable(16) %ref.tmp, ptr noundef nonnull align 8 dereferenceable(32) %user_key)
  %3 = load ptr, ptr %b.addr, align 8
  %user_key3 = getelementptr inbounds %"struct.rocksdb::TableReader::Anchor", ptr %3, i32 0, i32 0
  call void @_ZN7rocksdb5SliceC2ERKNSt7__cxx1112basic_stringIcSt11char_traitsIcESaIcEEE(ptr noundef nonnull align 8 dereferenceable(16) %ref.tmp2, ptr noundef nonnull align 8 dereferenceable(32) %user_key3)
  %call = call noundef i32 @_ZNK7rocksdb10Comparator23CompareWithoutTimestampERKNS_5SliceES3_(ptr noundef nonnull align 8 dereferenceable(48) %1, ptr noundef nonnull align 8 dereferenceable(16) %ref.tmp, ptr noundef nonnull align 8 dereferenceable(16) %ref.tmp2)
  %cmp = icmp slt i32 %call, 0
  ret i1 %cmp
}

; Function Attrs: mustprogress nounwind uwtable
define linkonce_odr void @_ZN7rocksdb11TableReader6AnchorD2Ev(ptr noundef nonnull align 8 dereferenceable(40) %this) unnamed_addr #1 comdat align 2 {
entry:
  %this.addr = alloca ptr, align 8
  store ptr %this, ptr %this.addr, align 8
  %this1 = load ptr, ptr %this.addr, align 8
  %user_key = getelementptr inbounds %"struct.rocksdb::TableReader::Anchor", ptr %this1, i32 0, i32 0
  call void @_ZNSt7__cxx1112basic_stringIcSt11char_traitsIcESaIcEED1Ev(ptr noundef nonnull align 8 dereferenceable(32) %user_key) #3
  ret void
}

; Function Attrs: mustprogress nounwind uwtable
define linkonce_odr noundef nonnull align 8 dereferenceable(40) ptr @_ZN7rocksdb11TableReader6AnchoraSEOS1_(ptr noundef nonnull align 8 dereferenceable(40) %this, ptr noundef nonnull align 8 dereferenceable(40) %0) #1 comdat align 2 {
entry:
  %this.addr = alloca ptr, align 8
  %.addr = alloca ptr, align 8
  store ptr %this, ptr %this.addr, align 8
  store ptr %0, ptr %.addr, align 8
  %this1 = load ptr, ptr %this.addr, align 8
  %user_key = getelementptr inbounds %"struct.rocksdb::TableReader::Anchor", ptr %this1, i32 0, i32 0
  %1 = load ptr, ptr %.addr, align 8
  %user_key2 = getelementptr inbounds %"struct.rocksdb::TableReader::Anchor", ptr %1, i32 0, i32 0
  %call = call noundef nonnull align 8 dereferenceable(32) ptr @_ZNSt7__cxx1112basic_stringIcSt11char_traitsIcESaIcEEaSEOS4_(ptr noundef nonnull align 8 dereferenceable(32) %user_key, ptr noundef nonnull align 8 dereferenceable(32) %user_key2) #3
  %2 = load ptr, ptr %.addr, align 8
  %range_size = getelementptr inbounds %"struct.rocksdb::TableReader::Anchor", ptr %2, i32 0, i32 1
  %3 = load i64, ptr %range_size, align 8
  %range_size3 = getelementptr inbounds %"struct.rocksdb::TableReader::Anchor", ptr %this1, i32 0, i32 1
  store i64 %3, ptr %range_size3, align 8
  ret ptr %this1
}

; Function Attrs: mustprogress uwtable
define internal noundef zeroext i1 @"_ZN9__gnu_cxx5__ops14_Val_comp_iterIZN7rocksdb13CompactionJob26GenSubcompactionBoundariesEvE3$_0EclINS2_11TableReader6AnchorENS_17__normal_iteratorIPS8_St6vectorIS8_SaIS8_EEEEEEbRT_T0_"(ptr noundef nonnull align 8 dereferenceable(8) %this, ptr noundef nonnull align 8 dereferenceable(40) %__val, ptr %__it.coerce) #0 align 2 {
entry:
  %__it = alloca %"class.__gnu_cxx::__normal_iterator.490", align 8
  %this.addr = alloca ptr, align 8
  %__val.addr = alloca ptr, align 8
  %coerce.dive = getelementptr inbounds %"class.__gnu_cxx::__normal_iterator.490", ptr %__it, i32 0, i32 0
  store ptr %__it.coerce, ptr %coerce.dive, align 8
  store ptr %this, ptr %this.addr, align 8
  store ptr %__val, ptr %__val.addr, align 8
  %this1 = load ptr, ptr %this.addr, align 8
  %_M_comp = getelementptr inbounds %"struct.__gnu_cxx::__ops::_Val_comp_iter", ptr %this1, i32 0, i32 0
  %0 = load ptr, ptr %__val.addr, align 8
  %call = call noundef nonnull align 8 dereferenceable(40) ptr @_ZNK9__gnu_cxx17__normal_iteratorIPN7rocksdb11TableReader6AnchorESt6vectorIS3_SaIS3_EEEdeEv(ptr noundef nonnull align 8 dereferenceable(8) %__it) #3
  %call2 = call noundef zeroext i1 @"_ZZN7rocksdb13CompactionJob26GenSubcompactionBoundariesEvENK3$_0clERNS_11TableReader6AnchorES4_"(ptr noundef nonnull align 8 dereferenceable(8) %_M_comp, ptr noundef nonnull align 8 dereferenceable(40) %0, ptr noundef nonnull align 8 dereferenceable(40) %call)
  ret i1 %call2
}

; Function Attrs: mustprogress nounwind uwtable
define linkonce_odr noundef nonnull align 8 dereferenceable(8) ptr @_ZN9__gnu_cxx17__normal_iteratorIPN7rocksdb11TableReader6AnchorESt6vectorIS3_SaIS3_EEEmmEv(ptr noundef nonnull align 8 dereferenceable(8) %this) #1 comdat align 2 {
entry:
  %this.addr = alloca ptr, align 8
  store ptr %this, ptr %this.addr, align 8
  %this1 = load ptr, ptr %this.addr, align 8
  %_M_current = getelementptr inbounds %"class.__gnu_cxx::__normal_iterator.490", ptr %this1, i32 0, i32 0
  %0 = load ptr, ptr %_M_current, align 8
  %incdec.ptr = getelementptr inbounds %"struct.rocksdb::TableReader::Anchor", ptr %0, i32 -1
  store ptr %incdec.ptr, ptr %_M_current, align 8
  ret ptr %this1
}

; Function Attrs: mustprogress nounwind uwtable
define linkonce_odr void @_ZN7rocksdb11TableReader6AnchorC2EOS1_(ptr noundef nonnull align 8 dereferenceable(40) %this, ptr noundef nonnull align 8 dereferenceable(40) %0) unnamed_addr #1 comdat align 2 {
entry:
  %this.addr = alloca ptr, align 8
  %.addr = alloca ptr, align 8
  store ptr %this, ptr %this.addr, align 8
  store ptr %0, ptr %.addr, align 8
  %this1 = load ptr, ptr %this.addr, align 8
  %user_key = getelementptr inbounds %"struct.rocksdb::TableReader::Anchor", ptr %this1, i32 0, i32 0
  %1 = load ptr, ptr %.addr, align 8
  %user_key2 = getelementptr inbounds %"struct.rocksdb::TableReader::Anchor", ptr %1, i32 0, i32 0
  call void @_ZNSt7__cxx1112basic_stringIcSt11char_traitsIcESaIcEEC1EOS4_(ptr noundef nonnull align 8 dereferenceable(32) %user_key, ptr noundef nonnull align 8 dereferenceable(32) %user_key2) #3
  %range_size = getelementptr inbounds %"struct.rocksdb::TableReader::Anchor", ptr %this1, i32 0, i32 1
  %2 = load ptr, ptr %.addr, align 8
  %range_size3 = getelementptr inbounds %"struct.rocksdb::TableReader::Anchor", ptr %2, i32 0, i32 1
  %3 = load i64, ptr %range_size3, align 8
  store i64 %3, ptr %range_size, align 8
  ret void
}

; Function Attrs: mustprogress nounwind uwtable
define linkonce_odr noundef nonnull align 8 dereferenceable(40) ptr @_ZNK9__gnu_cxx17__normal_iteratorIPN7rocksdb11TableReader6AnchorESt6vectorIS3_SaIS3_EEEdeEv(ptr noundef nonnull align 8 dereferenceable(8) %this) #1 comdat align 2 {
entry:
  %this.addr = alloca ptr, align 8
  store ptr %this, ptr %this.addr, align 8
  %this1 = load ptr, ptr %this.addr, align 8
  %_M_current = getelementptr inbounds %"class.__gnu_cxx::__normal_iterator.490", ptr %this1, i32 0, i32 0
  %0 = load ptr, ptr %_M_current, align 8
  ret ptr %0
}

; Function Attrs: mustprogress uwtable
define internal void @"_ZSt25__unguarded_linear_insertIN9__gnu_cxx17__normal_iteratorIPN7rocksdb11TableReader6AnchorESt6vectorIS4_SaIS4_EEEENS0_5__ops14_Val_comp_iterIZNS2_13CompactionJob26GenSubcompactionBoundariesEvE3$_0EEEvT_T0_"(ptr %__last.coerce, ptr %__comp.coerce) #0 personality ptr @__gxx_personality_v0 {
entry:
  %__last = alloca %"class.__gnu_cxx::__normal_iterator.490", align 8
  %__comp = alloca %"struct.__gnu_cxx::__ops::_Val_comp_iter", align 8
  %__val = alloca %"struct.rocksdb::TableReader::Anchor", align 8
  %__next = alloca %"class.__gnu_cxx::__normal_iterator.490", align 8
  %agg.tmp = alloca %"class.__gnu_cxx::__normal_iterator.490", align 8
  %exn.slot = alloca ptr, align 8
  %ehselector.slot = alloca i32, align 4
  %coerce.dive = getelementptr inbounds %"class.__gnu_cxx::__normal_iterator.490", ptr %__last, i32 0, i32 0
  store ptr %__last.coerce, ptr %coerce.dive, align 8
  %coerce.dive1 = getelementptr inbounds %"struct.__gnu_cxx::__ops::_Val_comp_iter", ptr %__comp, i32 0, i32 0
  %coerce.dive2 = getelementptr inbounds %class.anon, ptr %coerce.dive1, i32 0, i32 0
  store ptr %__comp.coerce, ptr %coerce.dive2, align 8
  %call = call noundef nonnull align 8 dereferenceable(40) ptr @_ZNK9__gnu_cxx17__normal_iteratorIPN7rocksdb11TableReader6AnchorESt6vectorIS3_SaIS3_EEEdeEv(ptr noundef nonnull align 8 dereferenceable(8) %__last) #3
  call void @_ZN7rocksdb11TableReader6AnchorC2EOS1_(ptr noundef nonnull align 8 dereferenceable(40) %__val, ptr noundef nonnull align 8 dereferenceable(40) %call) #3
  call void @llvm.memcpy.p0.p0.i64(ptr align 8 %__next, ptr align 8 %__last, i64 8, i1 false)
  %call3 = call noundef nonnull align 8 dereferenceable(8) ptr @_ZN9__gnu_cxx17__normal_iteratorIPN7rocksdb11TableReader6AnchorESt6vectorIS3_SaIS3_EEEmmEv(ptr noundef nonnull align 8 dereferenceable(8) %__next) #3
  br label %while.cond

while.cond:                                       ; preds = %while.body, %entry
  call void @llvm.memcpy.p0.p0.i64(ptr align 8 %agg.tmp, ptr align 8 %__next, i64 8, i1 false)
  %coerce.dive4 = getelementptr inbounds %"class.__gnu_cxx::__normal_iterator.490", ptr %agg.tmp, i32 0, i32 0
  %0 = load ptr, ptr %coerce.dive4, align 8
  %call5 = invoke noundef zeroext i1 @"_ZN9__gnu_cxx5__ops14_Val_comp_iterIZN7rocksdb13CompactionJob26GenSubcompactionBoundariesEvE3$_0EclINS2_11TableReader6AnchorENS_17__normal_iteratorIPS8_St6vectorIS8_SaIS8_EEEEEEbRT_T0_"(ptr noundef nonnull align 8 dereferenceable(8) %__comp, ptr noundef nonnull align 8 dereferenceable(40) %__val, ptr %0)
          to label %invoke.cont unwind label %lpad

invoke.cont:                                      ; preds = %while.cond
  br i1 %call5, label %while.body, label %while.end

while.body:                                       ; preds = %invoke.cont
  %call6 = call noundef nonnull align 8 dereferenceable(40) ptr @_ZNK9__gnu_cxx17__normal_iteratorIPN7rocksdb11TableReader6AnchorESt6vectorIS3_SaIS3_EEEdeEv(ptr noundef nonnull align 8 dereferenceable(8) %__next) #3
  %call7 = call noundef nonnull align 8 dereferenceable(40) ptr @_ZNK9__gnu_cxx17__normal_iteratorIPN7rocksdb11TableReader6AnchorESt6vectorIS3_SaIS3_EEEdeEv(ptr noundef nonnull align 8 dereferenceable(8) %__last) #3
  %call8 = call noundef nonnull align 8 dereferenceable(40) ptr @_ZN7rocksdb11TableReader6AnchoraSEOS1_(ptr noundef nonnull align 8 dereferenceable(40) %call7, ptr noundef nonnull align 8 dereferenceable(40) %call6) #3
  call void @llvm.memcpy.p0.p0.i64(ptr align 8 %__last, ptr align 8 %__next, i64 8, i1 false)
  %call9 = call noundef nonnull align 8 dereferenceable(8) ptr @_ZN9__gnu_cxx17__normal_iteratorIPN7rocksdb11TableReader6AnchorESt6vectorIS3_SaIS3_EEEmmEv(ptr noundef nonnull align 8 dereferenceable(8) %__next) #3
  br label %while.cond, !llvm.loop !76

lpad:                                             ; preds = %while.cond
  %1 = landingpad { ptr, i32 }
          cleanup
  %2 = extractvalue { ptr, i32 } %1, 0
  store ptr %2, ptr %exn.slot, align 8
  %3 = extractvalue { ptr, i32 } %1, 1
  store i32 %3, ptr %ehselector.slot, align 4
  call void @_ZN7rocksdb11TableReader6AnchorD2Ev(ptr noundef nonnull align 8 dereferenceable(40) %__val) #3
  br label %eh.resume

while.end:                                        ; preds = %invoke.cont
  %call10 = call noundef nonnull align 8 dereferenceable(40) ptr @_ZNK9__gnu_cxx17__normal_iteratorIPN7rocksdb11TableReader6AnchorESt6vectorIS3_SaIS3_EEEdeEv(ptr noundef nonnull align 8 dereferenceable(8) %__last) #3
  %call11 = call noundef nonnull align 8 dereferenceable(40) ptr @_ZN7rocksdb11TableReader6AnchoraSEOS1_(ptr noundef nonnull align 8 dereferenceable(40) %call10, ptr noundef nonnull align 8 dereferenceable(40) %__val) #3
  call void @_ZN7rocksdb11TableReader6AnchorD2Ev(ptr noundef nonnull align 8 dereferenceable(40) %__val) #3
  ret void

eh.resume:                                        ; preds = %lpad
  %exn = load ptr, ptr %exn.slot, align 8
  %sel = load i32, ptr %ehselector.slot, align 4
  %lpad.val = insertvalue { ptr, i32 } poison, ptr %exn, 0
  %lpad.val12 = insertvalue { ptr, i32 } %lpad.val, i32 %sel, 1
  resume { ptr, i32 } %lpad.val12
}