; Function Attrs: mustprogress uwtable
define internal fastcc void @"_ZSt25__unguarded_linear_insertIN9__gnu_cxx17__normal_iteratorIPN7rocksdb11TableReader6AnchorESt6vectorIS4_SaIS4_EEEENS0_5__ops14_Val_comp_iterIZNS2_13CompactionJob26GenSubcompactionBoundariesEvE3$_0EEEvT_T0_"(ptr nonnull %__last.coerce, ptr %__comp.coerce) unnamed_addr #5 personality ptr @__gxx_personality_v0 {
entry:
  %ref.tmp.i.i = alloca %"class.rocksdb::Slice", align 8
  %ref.tmp2.i.i = alloca %"class.rocksdb::Slice", align 8
  %__val = alloca %"struct.rocksdb::TableReader::Anchor", align 8
  call void @_ZNSt7__cxx1112basic_stringIcSt11char_traitsIcESaIcEEC1EOS4_(ptr noundef nonnull align 8 dereferenceable(32) %__val, ptr noundef nonnull align 8 dereferenceable(32) %__last.coerce) #27
  %range_size.i = getelementptr inbounds i8, ptr %__val, i64 32
  %range_size3.i = getelementptr inbounds i8, ptr %__last.coerce, i64 32
  %0 = load i64, ptr %range_size3.i, align 8
  store i64 %0, ptr %range_size.i, align 8
  %size_.i.i.i = getelementptr inbounds i8, ptr %ref.tmp.i.i, i64 8
  %size_.i2.i.i = getelementptr inbounds i8, ptr %ref.tmp2.i.i, i64 8
  br label %while.cond

while.cond:                                       ; preds = %while.body, %entry
  %__last.sroa.0.0 = phi ptr [ %__last.coerce, %entry ], [ %__next.sroa.0.0, %while.body ]
  %__next.sroa.0.0 = getelementptr inbounds i8, ptr %__last.sroa.0.0, i64 -40
  call void @llvm.lifetime.start.p0(i64 16, ptr nonnull %ref.tmp.i.i)
  call void @llvm.lifetime.start.p0(i64 16, ptr nonnull %ref.tmp2.i.i)
  %call.i.i.i = call noundef ptr @_ZNKSt7__cxx1112basic_stringIcSt11char_traitsIcESaIcEE4dataEv(ptr noundef nonnull align 8 dereferenceable(32) %__val) #27
  store ptr %call.i.i.i, ptr %ref.tmp.i.i, align 8
  %call2.i.i.i = call noundef i64 @_ZNKSt7__cxx1112basic_stringIcSt11char_traitsIcESaIcEE4sizeEv(ptr noundef nonnull align 8 dereferenceable(32) %__val) #27
  store i64 %call2.i.i.i, ptr %size_.i.i.i, align 8
  %call.i1.i.i = call noundef ptr @_ZNKSt7__cxx1112basic_stringIcSt11char_traitsIcESaIcEE4dataEv(ptr noundef nonnull align 8 dereferenceable(32) %__next.sroa.0.0) #27
  store ptr %call.i1.i.i, ptr %ref.tmp2.i.i, align 8
  %call2.i3.i.i = call noundef i64 @_ZNKSt7__cxx1112basic_stringIcSt11char_traitsIcESaIcEE4sizeEv(ptr noundef nonnull align 8 dereferenceable(32) %__next.sroa.0.0) #27
  store i64 %call2.i3.i.i, ptr %size_.i2.i.i, align 8
  %vtable.i.i.i = load ptr, ptr %__comp.coerce, align 8
  %vfn.i.i.i = getelementptr inbounds i8, ptr %vtable.i.i.i, i64 208
  %1 = load ptr, ptr %vfn.i.i.i, align 8
  %call.i4.i.i1 = invoke noundef i32 %1(ptr noundef nonnull align 8 dereferenceable(48) %__comp.coerce, ptr noundef nonnull align 8 dereferenceable(16) %ref.tmp.i.i, i1 noundef zeroext true, ptr noundef nonnull align 8 dereferenceable(16) %ref.tmp2.i.i, i1 noundef zeroext true)
          to label %invoke.cont unwind label %lpad

invoke.cont:                                      ; preds = %while.cond
  %cmp.i.i = icmp slt i32 %call.i4.i.i1, 0
  call void @llvm.lifetime.end.p0(i64 16, ptr nonnull %ref.tmp.i.i)
  call void @llvm.lifetime.end.p0(i64 16, ptr nonnull %ref.tmp2.i.i)
  br i1 %cmp.i.i, label %while.body, label %while.end

while.body:                                       ; preds = %invoke.cont
  %call.i = call noundef nonnull align 8 dereferenceable(32) ptr @_ZNSt7__cxx1112basic_stringIcSt11char_traitsIcESaIcEEaSEOS4_(ptr noundef nonnull align 8 dereferenceable(32) %__last.sroa.0.0, ptr noundef nonnull align 8 dereferenceable(32) %__next.sroa.0.0) #27
  %range_size.i2 = getelementptr inbounds i8, ptr %__last.sroa.0.0, i64 -8
  %2 = load i64, ptr %range_size.i2, align 8
  %range_size3.i3 = getelementptr inbounds i8, ptr %__last.sroa.0.0, i64 32
  store i64 %2, ptr %range_size3.i3, align 8
  br label %while.cond, !llvm.loop !190

lpad:                                             ; preds = %while.cond
  %3 = landingpad { ptr, i32 }
          cleanup
  call void @_ZNSt7__cxx1112basic_stringIcSt11char_traitsIcESaIcEED1Ev(ptr noundef nonnull align 8 dereferenceable(32) %__val) #27
  resume { ptr, i32 } %3

while.end:                                        ; preds = %invoke.cont
  %call.i5 = call noundef nonnull align 8 dereferenceable(32) ptr @_ZNSt7__cxx1112basic_stringIcSt11char_traitsIcESaIcEEaSEOS4_(ptr noundef nonnull align 8 dereferenceable(32) %__last.sroa.0.0, ptr noundef nonnull align 8 dereferenceable(32) %__val) #27
  %4 = load i64, ptr %range_size.i, align 8
  %range_size3.i7 = getelementptr inbounds i8, ptr %__last.sroa.0.0, i64 32
  store i64 %4, ptr %range_size3.i7, align 8
  call void @_ZNSt7__cxx1112basic_stringIcSt11char_traitsIcESaIcEED1Ev(ptr noundef nonnull align 8 dereferenceable(32) %__val) #27
  ret void
}